target datalayout = "e-m:e-p270:32:32-p271:32:32-p272:64:64-i64:64-i128:128-f80:128-n8:16:32:64-S128"
target triple = "x86_64-pc-linux-gnu"

%struct.Hacl_Hash_Blake2s_Simd128_block_state_t_s = type { i8, i8, i8, %struct.K____Lib_IntVector_Intrinsics_vec128___Lib_IntVector_Intrinsics_vec128__s }
%struct.K____Lib_IntVector_Intrinsics_vec128___Lib_IntVector_Intrinsics_vec128__s = type { ptr, ptr }
%struct.Hacl_Hash_Blake2s_Simd128_state_t_s = type { %struct.Hacl_Hash_Blake2s_Simd128_block_state_t_s, ptr, i64 }

; Function Attrs: nounwind uwtable
define hidden void @python_hashlib_Hacl_Hash_Blake2s_Simd128_free(ptr noundef %0) #5 {
  %2 = alloca ptr, align 8
  %3 = alloca %struct.Hacl_Hash_Blake2s_Simd128_state_t_s, align 8
  %4 = alloca ptr, align 8
  %5 = alloca %struct.Hacl_Hash_Blake2s_Simd128_block_state_t_s, align 8
  %6 = alloca ptr, align 8
  %7 = alloca ptr, align 8
  store ptr %0, ptr %2, align 8, !tbaa !54
  call void @llvm.lifetime.start.p0(i64 40, ptr %3) #14
  %8 = load ptr, ptr %2, align 8, !tbaa !54
  call void @llvm.memcpy.p0.p0.i64(ptr align 8 %3, ptr align 8 %8, i64 40, i1 false), !tbaa.struct !56
  call void @llvm.lifetime.start.p0(i64 8, ptr %4) #14
  %9 = getelementptr inbounds nuw %struct.Hacl_Hash_Blake2s_Simd128_state_t_s, ptr %3, i32 0, i32 1
  %10 = load ptr, ptr %9, align 8, !tbaa !51
  store ptr %10, ptr %4, align 8, !tbaa !25
  call void @llvm.lifetime.start.p0(i64 24, ptr %5) #14
  %11 = getelementptr inbounds nuw %struct.Hacl_Hash_Blake2s_Simd128_state_t_s, ptr %3, i32 0, i32 0
  call void @llvm.memcpy.p0.p0.i64(ptr align 8 %5, ptr align 8 %11, i64 24, i1 false), !tbaa.struct !50
  call void @llvm.lifetime.start.p0(i64 8, ptr %6) #14
  %12 = getelementptr inbounds nuw %struct.Hacl_Hash_Blake2s_Simd128_block_state_t_s, ptr %5, i32 0, i32 3
  %13 = getelementptr inbounds nuw %struct.K____Lib_IntVector_Intrinsics_vec128___Lib_IntVector_Intrinsics_vec128__s, ptr %12, i32 0, i32 1
  %14 = load ptr, ptr %13, align 8, !tbaa !57
  store ptr %14, ptr %6, align 8, !tbaa !3
  call void @llvm.lifetime.start.p0(i64 8, ptr %7) #14
  %15 = getelementptr inbounds nuw %struct.Hacl_Hash_Blake2s_Simd128_block_state_t_s, ptr %5, i32 0, i32 3
  %16 = getelementptr inbounds nuw %struct.K____Lib_IntVector_Intrinsics_vec128___Lib_IntVector_Intrinsics_vec128__s, ptr %15, i32 0, i32 0
  %17 = load ptr, ptr %16, align 8, !tbaa !59
  store ptr %17, ptr %7, align 8, !tbaa !3
  %18 = load ptr, ptr %7, align 8, !tbaa !3
  call void @free(ptr noundef %18) #14
  %19 = load ptr, ptr %6, align 8, !tbaa !3
  call void @free(ptr noundef %19) #14
  %20 = load ptr, ptr %4, align 8, !tbaa !25
  call void @free(ptr noundef %20) #14
  %21 = load ptr, ptr %2, align 8, !tbaa !54
  call void @free(ptr noundef %21) #14
  call void @llvm.lifetime.end.p0(i64 8, ptr %7) #14
  call void @llvm.lifetime.end.p0(i64 8, ptr %6) #14
  call void @llvm.lifetime.end.p0(i64 24, ptr %5) #14
  call void @llvm.lifetime.end.p0(i64 8, ptr %4) #14
  call void @llvm.lifetime.end.p0(i64 40, ptr %3) #14
  ret void
}